; Function Attrs: mustprogress uwtable
define noalias noundef nonnull ptr @lean_uv_udp_getsockname(ptr noundef readonly captures(none) %0) local_unnamed_addr #0 {
  %2 = alloca %struct.sockaddr_storage, align 8
  %3 = alloca i32, align 4
  %4 = getelementptr i8, ptr %0, i64 16
  %.val = load ptr, ptr %4, align 8, !tbaa !40
  call void @llvm.lifetime.start.p0(i64 128, ptr nonnull %2) #15
  call void @llvm.lifetime.start.p0(i64 4, ptr nonnull %3) #15
  store i32 128, ptr %3, align 4, !tbaa !53
  tail call void @_ZN4lean15event_loop_lockEPNS_12event_loop_tE(ptr noundef nonnull @_ZN4lean9global_evE)
  %5 = load ptr, ptr %.val, align 8, !tbaa !20
  %6 = call i32 @uv_udp_getsockname(ptr noundef %5, ptr noundef nonnull %2, ptr noundef nonnull %3)
  call void @_ZN4lean17event_loop_unlockEPNS_12event_loop_tE(ptr noundef nonnull @_ZN4lean9global_evE)
  %7 = icmp slt i32 %6, 0
  br i1 %7, label %8, label %13

8:                                                ; preds = %1
  %9 = call ptr @lean_decode_uv_error(i32 noundef %6, ptr noundef null)
  call void @lean_inc_heartbeat()
  %10 = call noalias ptr @mi_malloc_small(i64 noundef 24) #15
  %11 = icmp eq ptr %10, null
  br i1 %11, label %12, label %_ZL23lean_io_result_mk_errorP11lean_object.exit

12:                                               ; preds = %8
  call void @lean_internal_panic_out_of_memory() #16
  unreachable

13:                                               ; preds = %1
  %14 = call noundef ptr @_ZN4lean30lean_sockaddr_to_socketaddressEPK8sockaddr(ptr noundef nonnull %2)
  call void @lean_inc_heartbeat()
  %15 = call noalias ptr @mi_malloc_small(i64 noundef 24) #15
  %16 = icmp eq ptr %15, null
  br i1 %16, label %17, label %_ZL23lean_io_result_mk_errorP11lean_object.exit

17:                                               ; preds = %13
  call void @lean_internal_panic_out_of_memory() #16
  unreachable

_ZL23lean_io_result_mk_errorP11lean_object.exit:  ; preds = %13, %8
  %.sink12 = phi ptr [ %10, %8 ], [ %15, %13 ]
  %.sink9 = phi i32 [ 16908312, %8 ], [ 131096, %13 ]
  %.sink = phi ptr [ %9, %8 ], [ %14, %13 ]
  %18 = getelementptr inbounds nuw i8, ptr %.sink12, i64 4
  store i32 1, ptr %.sink12, align 4, !tbaa !36
  store i32 %.sink9, ptr %18, align 4
  %19 = getelementptr inbounds nuw i8, ptr %.sink12, i64 8
  store ptr %.sink, ptr %19, align 8, !tbaa !30
  %20 = getelementptr inbounds nuw i8, ptr %.sink12, i64 16
  store ptr inttoptr (i64 1 to ptr), ptr %20, align 8, !tbaa !30
  call void @llvm.lifetime.end.p0(i64 4, ptr nonnull %3) #15
  call void @llvm.lifetime.end.p0(i64 128, ptr nonnull %2) #15
  ret ptr %.sink12
}